target datalayout = "e-m:e-p270:32:32-p271:32:32-p272:64:64-i64:64-f80:128-n8:16:32:64-S128"
target triple = "x86_64-pc-linux-gnu"

@.str = private unnamed_addr constant [3 x i8] c"%c\00", align 1
@.str.1 = private unnamed_addr constant [3 x i8] c"No\00", align 1
@.str.2 = private unnamed_addr constant [3 x i8] c"%d\00", align 1

; Function Attrs: noinline nounwind uwtable
define dso_local void @main() #0 {
  %1 = alloca i32, align 4
  %2 = alloca i32, align 4
  %3 = alloca i32, align 4
  %4 = alloca i32, align 4
  %5 = alloca i32, align 4
  %6 = alloca i32, align 4
  %7 = alloca i32, align 4
  %8 = alloca i32, align 4
  %9 = alloca [300 x i32], align 16
  %10 = alloca [300 x [5 x i8]], align 16
  %11 = alloca i8, align 1
  store i32 0, i32* %2, align 4
  store i32 0, i32* %6, align 4
  store i32 0, i32* %7, align 4
  store i32 0, i32* %8, align 4
  %12 = bitcast [300 x i32]* %9 to i8*
  call void @llvm.memset.p0i8.i64(i8* align 16 %12, i8 0, i64 1200, i1 false)
  %13 = bitcast [300 x [5 x i8]]* %10 to i8*
  call void @llvm.memset.p0i8.i64(i8* align 16 %13, i8 0, i64 1500, i1 false)
  store i32 0, i32* %3, align 4
  store i32 0, i32* %4, align 4
  br label %14

14:                                               ; preds = %51, %0
  %15 = call i32 (i8*, ...) @__isoc99_scanf(i8* getelementptr inbounds ([3 x i8], [3 x i8]* @.str, i64 0, i64 0), i8* %11)
  %16 = load i8, i8* %11, align 1
  %17 = sext i8 %16 to i32
  %18 = icmp eq i32 %17, 10
  br i1 %18, label %19, label %26

19:                                               ; preds = %14
  %20 = load i32, i32* %3, align 4
  %21 = sext i32 %20 to i64
  %22 = getelementptr inbounds [300 x [5 x i8]], [300 x [5 x i8]]* %10, i64 0, i64 %21
  %23 = load i32, i32* %4, align 4
  %24 = sext i32 %23 to i64
  %25 = getelementptr inbounds [5 x i8], [5 x i8]* %22, i64 0, i64 %24
  store i8 0, i8* %25, align 1
  br label %52

26:                                               ; preds = %14
  %27 = load i8, i8* %11, align 1
  %28 = sext i8 %27 to i32
  %29 = icmp eq i32 %28, 44
  br i1 %29, label %30, label %39

30:                                               ; preds = %26
  %31 = load i32, i32* %3, align 4
  %32 = sext i32 %31 to i64
  %33 = getelementptr inbounds [300 x [5 x i8]], [300 x [5 x i8]]* %10, i64 0, i64 %32
  %34 = load i32, i32* %4, align 4
  %35 = sext i32 %34 to i64
  %36 = getelementptr inbounds [5 x i8], [5 x i8]* %33, i64 0, i64 %35
  store i8 0, i8* %36, align 1
  %37 = load i32, i32* %3, align 4
  %38 = add nsw i32 %37, 1
  store i32 %38, i32* %3, align 4
  store i32 0, i32* %4, align 4
  br label %49

39:                                               ; preds = %26
  %40 = load i8, i8* %11, align 1
  %41 = load i32, i32* %3, align 4
  %42 = sext i32 %41 to i64
  %43 = getelementptr inbounds [300 x [5 x i8]], [300 x [5 x i8]]* %10, i64 0, i64 %42
  %44 = load i32, i32* %4, align 4
  %45 = sext i32 %44 to i64
  %46 = getelementptr inbounds [5 x i8], [5 x i8]* %43, i64 0, i64 %45
  store i8 %40, i8* %46, align 1
  %47 = load i32, i32* %4, align 4
  %48 = add nsw i32 %47, 1
  store i32 %48, i32* %4, align 4
  br label %49

49:                                               ; preds = %39, %30
  br label %50

50:                                               ; preds = %49
  br label %51

51:                                               ; preds = %50
  br i1 true, label %14, label %52

52:                                               ; preds = %51, %19
  %53 = load i32, i32* %3, align 4
  %54 = add nsw i32 %53, 1
  store i32 %54, i32* %2, align 4
  store i32 0, i32* %3, align 4
  br label %55

55:                                               ; preds = %209, %52
  %56 = load i32, i32* %3, align 4
  %57 = load i32, i32* %2, align 4
  %58 = icmp slt i32 %56, %57
  br i1 %58, label %59, label %212

59:                                               ; preds = %55
  store i32 0, i32* %6, align 4
  store i32 3, i32* %4, align 4
  br label %60

60:                                               ; preds = %205, %59
  %61 = load i32, i32* %4, align 4
  %62 = icmp sge i32 %61, 0
  br i1 %62, label %63, label %208

63:                                               ; preds = %60
  %64 = load i32, i32* %3, align 4
  %65 = sext i32 %64 to i64
  %66 = getelementptr inbounds [300 x [5 x i8]], [300 x [5 x i8]]* %10, i64 0, i64 %65
  %67 = load i32, i32* %4, align 4
  %68 = sext i32 %67 to i64
  %69 = getelementptr inbounds [5 x i8], [5 x i8]* %66, i64 0, i64 %68
  %70 = load i8, i8* %69, align 1
  %71 = sext i8 %70 to i32
  %72 = icmp ne i32 %71, 0
  br i1 %72, label %73, label %96

73:                                               ; preds = %63
  %74 = load i32, i32* %6, align 4
  %75 = icmp eq i32 %74, 0
  br i1 %75, label %76, label %96

76:                                               ; preds = %73
  %77 = load i32, i32* %3, align 4
  %78 = sext i32 %77 to i64
  %79 = getelementptr inbounds [300 x i32], [300 x i32]* %9, i64 0, i64 %78
  %80 = load i32, i32* %79, align 4
  %81 = load i32, i32* %3, align 4
  %82 = sext i32 %81 to i64
  %83 = getelementptr inbounds [300 x [5 x i8]], [300 x [5 x i8]]* %10, i64 0, i64 %82
  %84 = load i32, i32* %4, align 4
  %85 = sext i32 %84 to i64
  %86 = getelementptr inbounds [5 x i8], [5 x i8]* %83, i64 0, i64 %85
  %87 = load i8, i8* %86, align 1
  %88 = sext i8 %87 to i32
  %89 = add nsw i32 %80, %88
  %90 = sub nsw i32 %89, 48
  %91 = load i32, i32* %3, align 4
  %92 = sext i32 %91 to i64
  %93 = getelementptr inbounds [300 x i32], [300 x i32]* %9, i64 0, i64 %92
  store i32 %90, i32* %93, align 4
  %94 = load i32, i32* %6, align 4
  %95 = add nsw i32 %94, 1
  store i32 %95, i32* %6, align 4
  br label %205

96:                                               ; preds = %73, %63
  %97 = load i32, i32* %3, align 4
  %98 = sext i32 %97 to i64
  %99 = getelementptr inbounds [300 x [5 x i8]], [300 x [5 x i8]]* %10, i64 0, i64 %98
  %100 = load i32, i32* %4, align 4
  %101 = sext i32 %100 to i64
  %102 = getelementptr inbounds [5 x i8], [5 x i8]* %99, i64 0, i64 %101
  %103 = load i8, i8* %102, align 1
  %104 = sext i8 %103 to i32
  %105 = icmp ne i32 %104, 0
  br i1 %105, label %106, label %130

106:                                              ; preds = %96
  %107 = load i32, i32* %6, align 4
  %108 = icmp eq i32 %107, 1
  br i1 %108, label %109, label %130

109:                                              ; preds = %106
  %110 = load i32, i32* %3, align 4
  %111 = sext i32 %110 to i64
  %112 = getelementptr inbounds [300 x i32], [300 x i32]* %9, i64 0, i64 %111
  %113 = load i32, i32* %112, align 4
  %114 = load i32, i32* %3, align 4
  %115 = sext i32 %114 to i64
  %116 = getelementptr inbounds [300 x [5 x i8]], [300 x [5 x i8]]* %10, i64 0, i64 %115
  %117 = load i32, i32* %4, align 4
  %118 = sext i32 %117 to i64
  %119 = getelementptr inbounds [5 x i8], [5 x i8]* %116, i64 0, i64 %118
  %120 = load i8, i8* %119, align 1
  %121 = sext i8 %120 to i32
  %122 = sub nsw i32 %121, 48
  %123 = mul nsw i32 %122, 10
  %124 = add nsw i32 %113, %123
  %125 = load i32, i32* %3, align 4
  %126 = sext i32 %125 to i64
  %127 = getelementptr inbounds [300 x i32], [300 x i32]* %9, i64 0, i64 %126
  store i32 %124, i32* %127, align 4
  %128 = load i32, i32* %6, align 4
  %129 = add nsw i32 %128, 1
  store i32 %129, i32* %6, align 4
  br label %205

130:                                              ; preds = %106, %96
  %131 = load i32, i32* %3, align 4
  %132 = sext i32 %131 to i64
  %133 = getelementptr inbounds [300 x [5 x i8]], [300 x [5 x i8]]* %10, i64 0, i64 %132
  %134 = load i32, i32* %4, align 4
  %135 = sext i32 %134 to i64
  %136 = getelementptr inbounds [5 x i8], [5 x i8]* %133, i64 0, i64 %135
  %137 = load i8, i8* %136, align 1
  %138 = sext i8 %137 to i32
  %139 = icmp ne i32 %138, 0
  br i1 %139, label %140, label %165

140:                                              ; preds = %130
  %141 = load i32, i32* %6, align 4
  %142 = icmp eq i32 %141, 2
  br i1 %142, label %143, label %165

143:                                              ; preds = %140
  %144 = load i32, i32* %3, align 4
  %145 = sext i32 %144 to i64
  %146 = getelementptr inbounds [300 x i32], [300 x i32]* %9, i64 0, i64 %145
  %147 = load i32, i32* %146, align 4
  %148 = load i32, i32* %3, align 4
  %149 = sext i32 %148 to i64
  %150 = getelementptr inbounds [300 x [5 x i8]], [300 x [5 x i8]]* %10, i64 0, i64 %149
  %151 = load i32, i32* %4, align 4
  %152 = sext i32 %151 to i64
  %153 = getelementptr inbounds [5 x i8], [5 x i8]* %150, i64 0, i64 %152
  %154 = load i8, i8* %153, align 1
  %155 = sext i8 %154 to i32
  %156 = sub nsw i32 %155, 48
  %157 = mul nsw i32 %156, 10
  %158 = mul nsw i32 %157, 10
  %159 = add nsw i32 %147, %158
  %160 = load i32, i32* %3, align 4
  %161 = sext i32 %160 to i64
  %162 = getelementptr inbounds [300 x i32], [300 x i32]* %9, i64 0, i64 %161
  store i32 %159, i32* %162, align 4
  %163 = load i32, i32* %6, align 4
  %164 = add nsw i32 %163, 1
  store i32 %164, i32* %6, align 4
  br label %205

165:                                              ; preds = %140, %130
  %166 = load i32, i32* %3, align 4
  %167 = sext i32 %166 to i64
  %168 = getelementptr inbounds [300 x [5 x i8]], [300 x [5 x i8]]* %10, i64 0, i64 %167
  %169 = load i32, i32* %4, align 4
  %170 = sext i32 %169 to i64
  %171 = getelementptr inbounds [5 x i8], [5 x i8]* %168, i64 0, i64 %170
  %172 = load i8, i8* %171, align 1
  %173 = sext i8 %172 to i32
  %174 = icmp ne i32 %173, 0
  br i1 %174, label %175, label %201

175:                                              ; preds = %165
  %176 = load i32, i32* %6, align 4
  %177 = icmp eq i32 %176, 3
  br i1 %177, label %178, label %201

178:                                              ; preds = %175
  %179 = load i32, i32* %3, align 4
  %180 = sext i32 %179 to i64
  %181 = getelementptr inbounds [300 x i32], [300 x i32]* %9, i64 0, i64 %180
  %182 = load i32, i32* %181, align 4
  %183 = load i32, i32* %3, align 4
  %184 = sext i32 %183 to i64
  %185 = getelementptr inbounds [300 x [5 x i8]], [300 x [5 x i8]]* %10, i64 0, i64 %184
  %186 = load i32, i32* %4, align 4
  %187 = sext i32 %186 to i64
  %188 = getelementptr inbounds [5 x i8], [5 x i8]* %185, i64 0, i64 %187
  %189 = load i8, i8* %188, align 1
  %190 = sext i8 %189 to i32
  %191 = sub nsw i32 %190, 48
  %192 = mul nsw i32 %191, 10
  %193 = mul nsw i32 %192, 10
  %194 = mul nsw i32 %193, 10
  %195 = add nsw i32 %182, %194
  %196 = load i32, i32* %3, align 4
  %197 = sext i32 %196 to i64
  %198 = getelementptr inbounds [300 x i32], [300 x i32]* %9, i64 0, i64 %197
  store i32 %195, i32* %198, align 4
  %199 = load i32, i32* %6, align 4
  %200 = add nsw i32 %199, 1
  store i32 %200, i32* %6, align 4
  br label %205

201:                                              ; preds = %175, %165
  br label %202

202:                                              ; preds = %201
  br label %203

203:                                              ; preds = %202
  br label %204

204:                                              ; preds = %203
  br label %205

205:                                              ; preds = %204, %178, %143, %109, %76
  %206 = load i32, i32* %4, align 4
  %207 = add nsw i32 %206, -1
  store i32 %207, i32* %4, align 4
  br label %60

208:                                              ; preds = %60
  br label %209

209:                                              ; preds = %208
  %210 = load i32, i32* %3, align 4
  %211 = add nsw i32 %210, 1
  store i32 %211, i32* %3, align 4
  br label %55

212:                                              ; preds = %55
  store i32 0, i32* %3, align 4
  br label %213

213:                                              ; preds = %251, %212
  %214 = load i32, i32* %3, align 4
  %215 = load i32, i32* %2, align 4
  %216 = icmp slt i32 %214, %215
  br i1 %216, label %217, label %254

217:                                              ; preds = %213
  %218 = load i32, i32* %3, align 4
  %219 = sext i32 %218 to i64
  %220 = getelementptr inbounds [300 x i32], [300 x i32]* %9, i64 0, i64 %219
  %221 = load i32, i32* %220, align 4
  %222 = load i32, i32* %7, align 4
  %223 = icmp sgt i32 %221, %222
  br i1 %223, label %224, label %230

224:                                              ; preds = %217
  %225 = load i32, i32* %7, align 4
  store i32 %225, i32* %8, align 4
  %226 = load i32, i32* %3, align 4
  %227 = sext i32 %226 to i64
  %228 = getelementptr inbounds [300 x i32], [300 x i32]* %9, i64 0, i64 %227
  %229 = load i32, i32* %228, align 4
  store i32 %229, i32* %7, align 4
  br label %250

230:                                              ; preds = %217
  %231 = load i32, i32* %3, align 4
  %232 = sext i32 %231 to i64
  %233 = getelementptr inbounds [300 x i32], [300 x i32]* %9, i64 0, i64 %232
  %234 = load i32, i32* %233, align 4
  %235 = load i32, i32* %7, align 4
  %236 = icmp slt i32 %234, %235
  br i1 %236, label %237, label %249

237:                                              ; preds = %230
  %238 = load i32, i32* %3, align 4
  %239 = sext i32 %238 to i64
  %240 = getelementptr inbounds [300 x i32], [300 x i32]* %9, i64 0, i64 %239
  %241 = load i32, i32* %240, align 4
  %242 = load i32, i32* %8, align 4
  %243 = icmp sgt i32 %241, %242
  br i1 %243, label %244, label %249

244:                                              ; preds = %237
  %245 = load i32, i32* %3, align 4
  %246 = sext i32 %245 to i64
  %247 = getelementptr inbounds [300 x i32], [300 x i32]* %9, i64 0, i64 %246
  %248 = load i32, i32* %247, align 4
  store i32 %248, i32* %8, align 4
  br label %249

249:                                              ; preds = %244, %237, %230
  br label %250

250:                                              ; preds = %249, %224
  br label %251

251:                                              ; preds = %250
  %252 = load i32, i32* %3, align 4
  %253 = add nsw i32 %252, 1
  store i32 %253, i32* %3, align 4
  br label %213

254:                                              ; preds = %213
  %255 = load i32, i32* %8, align 4
  %256 = icmp eq i32 %255, 0
  br i1 %256, label %257, label %259

257:                                              ; preds = %254
  %258 = call i32 (i8*, ...) @printf(i8* getelementptr inbounds ([3 x i8], [3 x i8]* @.str.1, i64 0, i64 0))
  br label %262

259:                                              ; preds = %254
  %260 = load i32, i32* %8, align 4
  %261 = call i32 (i8*, ...) @printf(i8* getelementptr inbounds ([3 x i8], [3 x i8]* @.str.2, i64 0, i64 0), i32 %260)
  br label %262

262:                                              ; preds = %259, %257
  ret void
}